target datalayout = "e-m:e-p270:32:32-p271:32:32-p272:64:64-i64:64-i128:128-f80:128-n8:16:32:64-S128"
target triple = "x86_64-pc-linux-gnu"

%"class.rocksdb::PlainTableBloomV1" = type { i32, i32, i32, ptr }
%"class.__gnu_cxx::__normal_iterator" = type { ptr }
%"class.rocksdb::BloomBlockBuilder" = type { %"class.rocksdb::PlainTableBloomV1" }
%"struct.std::_Vector_base.1" = type { %"struct.std::_Vector_base<unsigned int, std::allocator<unsigned int>>::_Vector_impl" }
%"struct.std::_Vector_base<unsigned int, std::allocator<unsigned int>>::_Vector_impl" = type { %"struct.std::_Vector_base<unsigned int, std::allocator<unsigned int>>::_Vector_impl_data" }
%"struct.std::_Vector_base<unsigned int, std::allocator<unsigned int>>::_Vector_impl_data" = type { ptr, ptr, ptr }

; Function Attrs: inlinehint mustprogress nounwind uwtable
define linkonce_odr noundef i32 @_ZN7rocksdb23LegacyLocalityBloomImplILb1EE7GetLineEjj(i32 noundef %0, i32 noundef %1) #1 comdat align 2 {
  %3 = alloca i32, align 4
  %4 = alloca i32, align 4
  %5 = alloca i32, align 4
  store i32 %0, ptr %3, align 4, !tbaa !19
  store i32 %1, ptr %4, align 4, !tbaa !19
  call void @llvm.lifetime.start.p0(i64 4, ptr %5) #4
  %6 = load i32, ptr %3, align 4, !tbaa !19
  %7 = lshr i32 %6, 11
  %8 = load i32, ptr %3, align 4, !tbaa !19
  %9 = shl i32 %8, 21
  %10 = or i32 %7, %9
  store i32 %10, ptr %5, align 4, !tbaa !19
  %11 = load i32, ptr %5, align 4, !tbaa !19
  %12 = load i32, ptr %4, align 4, !tbaa !19
  %13 = urem i32 %11, %12
  call void @llvm.lifetime.end.p0(i64 4, ptr %5) #4
  ret i32 %13
}

; Function Attrs: inlinehint mustprogress nounwind uwtable
define linkonce_odr void @_ZN7rocksdb25LegacyNoLocalityBloomImpl7AddHashEjjiPc(i32 noundef %0, i32 noundef %1, i32 noundef %2, ptr noundef %3) #1 comdat align 2 {
  %5 = alloca i32, align 4
  %6 = alloca i32, align 4
  %7 = alloca i32, align 4
  %8 = alloca ptr, align 8
  %9 = alloca i32, align 4
  %10 = alloca i32, align 4
  %11 = alloca i32, align 4
  store i32 %0, ptr %5, align 4, !tbaa !19
  store i32 %1, ptr %6, align 4, !tbaa !19
  store i32 %2, ptr %7, align 4, !tbaa !19
  store ptr %3, ptr %8, align 8, !tbaa !27
  call void @llvm.lifetime.start.p0(i64 4, ptr %9) #4
  %12 = load i32, ptr %5, align 4, !tbaa !19
  %13 = lshr i32 %12, 17
  %14 = load i32, ptr %5, align 4, !tbaa !19
  %15 = shl i32 %14, 15
  %16 = or i32 %13, %15
  store i32 %16, ptr %9, align 4, !tbaa !19
  call void @llvm.lifetime.start.p0(i64 4, ptr %10) #4
  store i32 0, ptr %10, align 4, !tbaa !19
  br label %17

17:                                               ; preds = %41, %4
  %18 = load i32, ptr %10, align 4, !tbaa !19
  %19 = load i32, ptr %7, align 4, !tbaa !19
  %20 = icmp slt i32 %18, %19
  br i1 %20, label %22, label %21

21:                                               ; preds = %17
  call void @llvm.lifetime.end.p0(i64 4, ptr %10) #4
  br label %44

22:                                               ; preds = %17
  call void @llvm.lifetime.start.p0(i64 4, ptr %11) #4
  %23 = load i32, ptr %5, align 4, !tbaa !19
  %24 = load i32, ptr %6, align 4, !tbaa !19
  %25 = urem i32 %23, %24
  store i32 %25, ptr %11, align 4, !tbaa !19
  %26 = load i32, ptr %11, align 4, !tbaa !19
  %27 = urem i32 %26, 8
  %28 = shl i32 1, %27
  %29 = load ptr, ptr %8, align 8, !tbaa !27
  %30 = load i32, ptr %11, align 4, !tbaa !19
  %31 = udiv i32 %30, 8
  %32 = zext i32 %31 to i64
  %33 = getelementptr inbounds nuw i8, ptr %29, i64 %32
  %34 = load i8, ptr %33, align 1, !tbaa !63
  %35 = sext i8 %34 to i32
  %36 = or i32 %35, %28
  %37 = trunc i32 %36 to i8
  store i8 %37, ptr %33, align 1, !tbaa !63
  %38 = load i32, ptr %9, align 4, !tbaa !19
  %39 = load i32, ptr %5, align 4, !tbaa !19
  %40 = add i32 %39, %38
  store i32 %40, ptr %5, align 4, !tbaa !19
  call void @llvm.lifetime.end.p0(i64 4, ptr %11) #4
  br label %41

41:                                               ; preds = %22
  %42 = load i32, ptr %10, align 4, !tbaa !19
  %43 = add nsw i32 %42, 1
  store i32 %43, ptr %10, align 4, !tbaa !19
  br label %17, !llvm.loop !66

44:                                               ; preds = %21
  call void @llvm.lifetime.end.p0(i64 4, ptr %9) #4
  ret void
}

; Function Attrs: inlinehint mustprogress uwtable
define linkonce_odr void @_ZN7rocksdb23LegacyLocalityBloomImplILb1EE7AddHashEjjiPci(i32 noundef %0, i32 noundef %1, i32 noundef %2, ptr noundef %3, i32 noundef %4) #7 comdat align 2 {
  %6 = alloca i32, align 4
  %7 = alloca i32, align 4
  %8 = alloca i32, align 4
  %9 = alloca ptr, align 8
  %10 = alloca i32, align 4
  %11 = alloca i32, align 4
  %12 = alloca ptr, align 8
  %13 = alloca i32, align 4
  %14 = alloca i32, align 4
  %15 = alloca i32, align 4
  store i32 %0, ptr %6, align 4, !tbaa !19
  store i32 %1, ptr %7, align 4, !tbaa !19
  store i32 %2, ptr %8, align 4, !tbaa !19
  store ptr %3, ptr %9, align 8, !tbaa !27
  store i32 %4, ptr %10, align 4, !tbaa !19
  call void @llvm.lifetime.start.p0(i64 4, ptr %11) #4
  %16 = load i32, ptr %10, align 4, !tbaa !19
  %17 = add nsw i32 %16, 3
  store i32 %17, ptr %11, align 4, !tbaa !19
  call void @llvm.lifetime.start.p0(i64 8, ptr %12) #4
  %18 = load ptr, ptr %9, align 8, !tbaa !27
  %19 = load i32, ptr %6, align 4, !tbaa !19
  %20 = load i32, ptr %7, align 4, !tbaa !19
  %21 = call noundef i32 @_ZN7rocksdb23LegacyLocalityBloomImplILb1EE7GetLineEjj(i32 noundef %19, i32 noundef %20)
  %22 = load i32, ptr %10, align 4, !tbaa !19
  %23 = shl i32 %21, %22
  %24 = zext i32 %23 to i64
  %25 = getelementptr inbounds nuw i8, ptr %18, i64 %24
  store ptr %25, ptr %12, align 8, !tbaa !27
  call void @llvm.lifetime.start.p0(i64 4, ptr %13) #4
  %26 = load i32, ptr %6, align 4, !tbaa !19
  %27 = lshr i32 %26, 17
  %28 = load i32, ptr %6, align 4, !tbaa !19
  %29 = shl i32 %28, 15
  %30 = or i32 %27, %29
  store i32 %30, ptr %13, align 4, !tbaa !19
  call void @llvm.lifetime.start.p0(i64 4, ptr %14) #4
  store i32 0, ptr %14, align 4, !tbaa !19
  br label %31

31:                                               ; preds = %65, %5
  %32 = load i32, ptr %14, align 4, !tbaa !19
  %33 = load i32, ptr %8, align 4, !tbaa !19
  %34 = icmp slt i32 %32, %33
  br i1 %34, label %36, label %35

35:                                               ; preds = %31
  call void @llvm.lifetime.end.p0(i64 4, ptr %14) #4
  br label %68

36:                                               ; preds = %31
  call void @llvm.lifetime.start.p0(i64 4, ptr %15) #4
  %37 = load i32, ptr %6, align 4, !tbaa !19
  %38 = load i32, ptr %11, align 4, !tbaa !19
  %39 = shl i32 1, %38
  %40 = sub nsw i32 %39, 1
  %41 = and i32 %37, %40
  store i32 %41, ptr %15, align 4, !tbaa !19
  %42 = load i32, ptr %15, align 4, !tbaa !19
  %43 = urem i32 %42, 8
  %44 = shl i32 1, %43
  %45 = load ptr, ptr %12, align 8, !tbaa !27
  %46 = load i32, ptr %15, align 4, !tbaa !19
  %47 = udiv i32 %46, 8
  %48 = zext i32 %47 to i64
  %49 = getelementptr inbounds nuw i8, ptr %45, i64 %48
  %50 = load i8, ptr %49, align 1, !tbaa !63
  %51 = sext i8 %50 to i32
  %52 = or i32 %51, %44
  %53 = trunc i32 %52 to i8
  store i8 %53, ptr %49, align 1, !tbaa !63
  %54 = load i32, ptr %6, align 4, !tbaa !19
  %55 = load i32, ptr %11, align 4, !tbaa !19
  %56 = lshr i32 %54, %55
  %57 = load i32, ptr %6, align 4, !tbaa !19
  %58 = load i32, ptr %11, align 4, !tbaa !19
  %59 = sub nsw i32 32, %58
  %60 = shl i32 %57, %59
  %61 = or i32 %56, %60
  store i32 %61, ptr %6, align 4, !tbaa !19
  %62 = load i32, ptr %13, align 4, !tbaa !19
  %63 = load i32, ptr %6, align 4, !tbaa !19
  %64 = add i32 %63, %62
  store i32 %64, ptr %6, align 4, !tbaa !19
  call void @llvm.lifetime.end.p0(i64 4, ptr %15) #4
  br label %65

65:                                               ; preds = %36
  %66 = load i32, ptr %14, align 4, !tbaa !19
  %67 = add nsw i32 %66, 1
  store i32 %67, ptr %14, align 4, !tbaa !19
  br label %31, !llvm.loop !64

68:                                               ; preds = %35
  call void @llvm.lifetime.end.p0(i64 4, ptr %13) #4
  call void @llvm.lifetime.end.p0(i64 8, ptr %12) #4
  call void @llvm.lifetime.end.p0(i64 4, ptr %11) #4
  ret void
}

; Function Attrs: mustprogress nounwind uwtable
define linkonce_odr noundef nonnull align 8 dereferenceable(8) ptr @_ZNK9__gnu_cxx17__normal_iteratorIPKjSt6vectorIjSaIjEEE4baseEv(ptr noundef nonnull align 8 dereferenceable(8) %0) #3 comdat align 2 {
  %2 = alloca ptr, align 8
  store ptr %0, ptr %2, align 8, !tbaa !38
  %3 = load ptr, ptr %2, align 8
  %4 = getelementptr inbounds nuw %"class.__gnu_cxx::__normal_iterator", ptr %3, i32 0, i32 0
  ret ptr %4
}

; Function Attrs: mustprogress nounwind uwtable
define linkonce_odr void @_ZN9__gnu_cxx17__normal_iteratorIPKjSt6vectorIjSaIjEEEC2ERKS2_(ptr noundef nonnull align 8 dereferenceable(8) %0, ptr noundef nonnull align 8 dereferenceable(8) %1) unnamed_addr #3 comdat align 2 {
  %3 = alloca ptr, align 8
  %4 = alloca ptr, align 8
  store ptr %0, ptr %3, align 8, !tbaa !38
  store ptr %1, ptr %4, align 8, !tbaa !83
  %5 = load ptr, ptr %3, align 8
  %6 = getelementptr inbounds nuw %"class.__gnu_cxx::__normal_iterator", ptr %5, i32 0, i32 0
  %7 = load ptr, ptr %4, align 8, !tbaa !83
  %8 = load ptr, ptr %7, align 8, !tbaa !40
  store ptr %8, ptr %6, align 8, !tbaa !42
  ret void
}

; Function Attrs: mustprogress nounwind uwtable
define linkonce_odr noundef nonnull align 8 dereferenceable(8) ptr @_ZN9__gnu_cxx17__normal_iteratorIPKjSt6vectorIjSaIjEEEppEv(ptr noundef nonnull align 8 dereferenceable(8) %0) #3 comdat align 2 {
  %2 = alloca ptr, align 8
  store ptr %0, ptr %2, align 8, !tbaa !38
  %3 = load ptr, ptr %2, align 8
  %4 = getelementptr inbounds nuw %"class.__gnu_cxx::__normal_iterator", ptr %3, i32 0, i32 0
  %5 = load ptr, ptr %4, align 8, !tbaa !42
  %6 = getelementptr inbounds nuw i32, ptr %5, i32 1
  store ptr %6, ptr %4, align 8, !tbaa !42
  ret ptr %3
}

; Function Attrs: inlinehint mustprogress uwtable
define linkonce_odr void @_ZN7rocksdb17PlainTableBloomV17AddHashEj(ptr noundef nonnull align 8 dereferenceable(24) %0, i32 noundef %1) #7 comdat align 2 {
  %3 = alloca ptr, align 8
  %4 = alloca i32, align 4
  store ptr %0, ptr %3, align 8, !tbaa !17
  store i32 %1, ptr %4, align 4, !tbaa !19
  %5 = load ptr, ptr %3, align 8
  %6 = getelementptr inbounds nuw %"class.rocksdb::PlainTableBloomV1", ptr %5, i32 0, i32 1
  %7 = load i32, ptr %6, align 4, !tbaa !24
  %8 = icmp ne i32 %7, 0
  br i1 %8, label %9, label %17

9:                                                ; preds = %2
  %10 = load i32, ptr %4, align 4, !tbaa !19
  %11 = getelementptr inbounds nuw %"class.rocksdb::PlainTableBloomV1", ptr %5, i32 0, i32 1
  %12 = load i32, ptr %11, align 4, !tbaa !24
  %13 = getelementptr inbounds nuw %"class.rocksdb::PlainTableBloomV1", ptr %5, i32 0, i32 2
  %14 = load i32, ptr %13, align 8, !tbaa !25
  %15 = getelementptr inbounds nuw %"class.rocksdb::PlainTableBloomV1", ptr %5, i32 0, i32 3
  %16 = load ptr, ptr %15, align 8, !tbaa !26
  call void @_ZN7rocksdb23LegacyLocalityBloomImplILb1EE7AddHashEjjiPci(i32 noundef %10, i32 noundef %12, i32 noundef %14, ptr noundef %16, i32 noundef 6)
  br label %25

17:                                               ; preds = %2
  %18 = load i32, ptr %4, align 4, !tbaa !19
  %19 = getelementptr inbounds nuw %"class.rocksdb::PlainTableBloomV1", ptr %5, i32 0, i32 0
  %20 = load i32, ptr %19, align 8, !tbaa !21
  %21 = getelementptr inbounds nuw %"class.rocksdb::PlainTableBloomV1", ptr %5, i32 0, i32 2
  %22 = load i32, ptr %21, align 8, !tbaa !25
  %23 = getelementptr inbounds nuw %"class.rocksdb::PlainTableBloomV1", ptr %5, i32 0, i32 3
  %24 = load ptr, ptr %23, align 8, !tbaa !26
  call void @_ZN7rocksdb25LegacyNoLocalityBloomImpl7AddHashEjjiPc(i32 noundef %18, i32 noundef %20, i32 noundef %22, ptr noundef %24)
  br label %25

25:                                               ; preds = %17, %9
  ret void
}

; Function Attrs: mustprogress nounwind uwtable
define linkonce_odr noundef nonnull align 4 dereferenceable(4) ptr @_ZNK9__gnu_cxx17__normal_iteratorIPKjSt6vectorIjSaIjEEEdeEv(ptr noundef nonnull align 8 dereferenceable(8) %0) #3 comdat align 2 {
  %2 = alloca ptr, align 8
  store ptr %0, ptr %2, align 8, !tbaa !38
  %3 = load ptr, ptr %2, align 8
  %4 = getelementptr inbounds nuw %"class.__gnu_cxx::__normal_iterator", ptr %3, i32 0, i32 0
  %5 = load ptr, ptr %4, align 8, !tbaa !42
  ret ptr %5
}

; Function Attrs: inlinehint mustprogress nounwind uwtable
define linkonce_odr noundef zeroext i1 @_ZN9__gnu_cxxneIPKjSt6vectorIjSaIjEEEEbRKNS_17__normal_iteratorIT_T0_EESB_(ptr noundef nonnull align 8 dereferenceable(8) %0, ptr noundef nonnull align 8 dereferenceable(8) %1) #1 comdat {
  %3 = alloca ptr, align 8
  %4 = alloca ptr, align 8
  store ptr %0, ptr %3, align 8, !tbaa !38
  store ptr %1, ptr %4, align 8, !tbaa !38
  %5 = load ptr, ptr %3, align 8, !tbaa !38
  %6 = call noundef nonnull align 8 dereferenceable(8) ptr @_ZNK9__gnu_cxx17__normal_iteratorIPKjSt6vectorIjSaIjEEE4baseEv(ptr noundef nonnull align 8 dereferenceable(8) %5) #4
  %7 = load ptr, ptr %6, align 8, !tbaa !40
  %8 = load ptr, ptr %4, align 8, !tbaa !38
  %9 = call noundef nonnull align 8 dereferenceable(8) ptr @_ZNK9__gnu_cxx17__normal_iteratorIPKjSt6vectorIjSaIjEEE4baseEv(ptr noundef nonnull align 8 dereferenceable(8) %8) #4
  %10 = load ptr, ptr %9, align 8, !tbaa !40
  %11 = icmp ne ptr %7, %10
  ret i1 %11
}

; Function Attrs: mustprogress nounwind uwtable
define linkonce_odr ptr @_ZNKSt6vectorIjSaIjEE3endEv(ptr noundef nonnull align 8 dereferenceable(24) %0) #3 comdat align 2 {
  %2 = alloca %"class.__gnu_cxx::__normal_iterator", align 8
  %3 = alloca ptr, align 8
  store ptr %0, ptr %3, align 8, !tbaa !36
  %4 = load ptr, ptr %3, align 8
  %5 = getelementptr inbounds nuw %"struct.std::_Vector_base.1", ptr %4, i32 0, i32 0
  %6 = getelementptr inbounds nuw %"struct.std::_Vector_base<unsigned int, std::allocator<unsigned int>>::_Vector_impl_data", ptr %5, i32 0, i32 1
  call void @_ZN9__gnu_cxx17__normal_iteratorIPKjSt6vectorIjSaIjEEEC2ERKS2_(ptr noundef nonnull align 8 dereferenceable(8) %2, ptr noundef nonnull align 8 dereferenceable(8) %6) #4
  %7 = getelementptr inbounds nuw %"class.__gnu_cxx::__normal_iterator", ptr %2, i32 0, i32 0
  %8 = load ptr, ptr %7, align 8
  ret ptr %8
}

; Function Attrs: mustprogress nounwind uwtable
define linkonce_odr ptr @_ZNKSt6vectorIjSaIjEE5beginEv(ptr noundef nonnull align 8 dereferenceable(24) %0) #3 comdat align 2 {
  %2 = alloca %"class.__gnu_cxx::__normal_iterator", align 8
  %3 = alloca ptr, align 8
  store ptr %0, ptr %3, align 8, !tbaa !36
  %4 = load ptr, ptr %3, align 8
  %5 = getelementptr inbounds nuw %"struct.std::_Vector_base.1", ptr %4, i32 0, i32 0
  %6 = getelementptr inbounds nuw %"struct.std::_Vector_base<unsigned int, std::allocator<unsigned int>>::_Vector_impl_data", ptr %5, i32 0, i32 0
  call void @_ZN9__gnu_cxx17__normal_iteratorIPKjSt6vectorIjSaIjEEEC2ERKS2_(ptr noundef nonnull align 8 dereferenceable(8) %2, ptr noundef nonnull align 8 dereferenceable(8) %6) #4
  %7 = getelementptr inbounds nuw %"class.__gnu_cxx::__normal_iterator", ptr %2, i32 0, i32 0
  %8 = load ptr, ptr %7, align 8
  ret ptr %8
}

; Function Attrs: mustprogress uwtable
define void @_ZN7rocksdb17BloomBlockBuilder13AddKeysHashesERKSt6vectorIjSaIjEE(ptr noundef nonnull align 8 dereferenceable(24) %0, ptr noundef nonnull align 8 dereferenceable(24) %1) #5 align 2 {
  %3 = alloca ptr, align 8
  %4 = alloca ptr, align 8
  %5 = alloca ptr, align 8
  %6 = alloca %"class.__gnu_cxx::__normal_iterator", align 8
  %7 = alloca %"class.__gnu_cxx::__normal_iterator", align 8
  %8 = alloca i32, align 4
  store ptr %0, ptr %3, align 8, !tbaa !34
  store ptr %1, ptr %4, align 8, !tbaa !36
  %9 = load ptr, ptr %3, align 8
  call void @llvm.lifetime.start.p0(i64 8, ptr %5) #4
  %10 = load ptr, ptr %4, align 8, !tbaa !36
  store ptr %10, ptr %5, align 8, !tbaa !36
  call void @llvm.lifetime.start.p0(i64 8, ptr %6) #4
  %11 = load ptr, ptr %5, align 8, !tbaa !36
  %12 = call ptr @_ZNKSt6vectorIjSaIjEE5beginEv(ptr noundef nonnull align 8 dereferenceable(24) %11) #4
  %13 = getelementptr inbounds nuw %"class.__gnu_cxx::__normal_iterator", ptr %6, i32 0, i32 0
  store ptr %12, ptr %13, align 8
  call void @llvm.lifetime.start.p0(i64 8, ptr %7) #4
  %14 = load ptr, ptr %5, align 8, !tbaa !36
  %15 = call ptr @_ZNKSt6vectorIjSaIjEE3endEv(ptr noundef nonnull align 8 dereferenceable(24) %14) #4
  %16 = getelementptr inbounds nuw %"class.__gnu_cxx::__normal_iterator", ptr %7, i32 0, i32 0
  store ptr %15, ptr %16, align 8
  br label %17

17:                                               ; preds = %25, %2
  %18 = call noundef zeroext i1 @_ZN9__gnu_cxxneIPKjSt6vectorIjSaIjEEEEbRKNS_17__normal_iteratorIT_T0_EESB_(ptr noundef nonnull align 8 dereferenceable(8) %6, ptr noundef nonnull align 8 dereferenceable(8) %7) #4
  br i1 %18, label %20, label %19

19:                                               ; preds = %17
  call void @llvm.lifetime.end.p0(i64 8, ptr %7) #4
  call void @llvm.lifetime.end.p0(i64 8, ptr %6) #4
  call void @llvm.lifetime.end.p0(i64 8, ptr %5) #4
  br label %27

20:                                               ; preds = %17
  call void @llvm.lifetime.start.p0(i64 4, ptr %8) #4
  %21 = call noundef nonnull align 4 dereferenceable(4) ptr @_ZNK9__gnu_cxx17__normal_iteratorIPKjSt6vectorIjSaIjEEEdeEv(ptr noundef nonnull align 8 dereferenceable(8) %6) #4
  %22 = load i32, ptr %21, align 4, !tbaa !19
  store i32 %22, ptr %8, align 4, !tbaa !19
  %23 = getelementptr inbounds nuw %"class.rocksdb::BloomBlockBuilder", ptr %9, i32 0, i32 0
  %24 = load i32, ptr %8, align 4, !tbaa !19
  call void @_ZN7rocksdb17PlainTableBloomV17AddHashEj(ptr noundef nonnull align 8 dereferenceable(24) %23, i32 noundef %24)
  call void @llvm.lifetime.end.p0(i64 4, ptr %8) #4
  br label %25

25:                                               ; preds = %20
  %26 = call noundef nonnull align 8 dereferenceable(8) ptr @_ZN9__gnu_cxx17__normal_iteratorIPKjSt6vectorIjSaIjEEEppEv(ptr noundef nonnull align 8 dereferenceable(8) %6) #4
  br label %17

27:                                               ; preds = %19
  ret void
}